target datalayout = "e-m:e-p270:32:32-p271:32:32-p272:64:64-i64:64-i128:128-f80:128-n8:16:32:64-S128"
target triple = "x86_64-pc-linux-gnu"

%struct.stepd_step_rec_t = type { ptr, ptr, i32, %union.pthread_cond_t, %union.pthread_mutex_t, %struct.slurm_step_id_msg, i32, i32, i32, i32, i32, i32, ptr, ptr, i32, i32, ptr, i32, i32, i32, i32, i32, ptr, ptr, ptr, ptr, i32, i32, i64, i64, i16, i32, ptr, ptr, ptr, i32, ptr, i32, ptr, i32, ptr, i16, i32, i32, i32, ptr, i32, ptr, ptr, ptr, ptr, i32, i32, ptr, ptr, i8, i8, i8, i64, i32, ptr, ptr, ptr, ptr, ptr, ptr, ptr, ptr, ptr, ptr, i32, i32, ptr, i8, %union.pthread_cond_t, %union.pthread_mutex_t, i64, ptr, i32, i32, i32, ptr, i64, ptr, ptr, i8, ptr, i16, ptr, ptr, ptr, ptr, ptr, ptr, i64, ptr, i64, ptr, i16, i8, i16, i32, ptr, i16, ptr, ptr, i16, ptr, ptr, ptr, i8 }
%struct.slurm_step_id_msg = type { i64, i32, i32, i32 }
%union.pthread_cond_t = type { %struct.__pthread_cond_s }
%struct.__pthread_cond_s = type { %union.__atomic_wide_counter, %union.__atomic_wide_counter, [2 x i32], [2 x i32], i32, i32, [2 x i32] }
%union.__atomic_wide_counter = type { i64 }
%union.pthread_mutex_t = type { %struct.__pthread_mutex_s }
%struct.__pthread_mutex_s = type { i32, i32, i32, i32, i32, i16, i16, %struct.__pthread_internal_list }
%struct.__pthread_internal_list = type { ptr, ptr }
%struct.io_buf = type { i32, i32, ptr }
%struct.stepd_step_task_info_t = type { %union.pthread_mutex_t, i32, ptr, i32, i32, i32, ptr, ptr, ptr, i32, i32, i32, i32, i32, i32, ptr, ptr, ptr, i8, i8, i8, i8, i32, i32, ptr }

@.str.12 = private unnamed_addr constant [5 x i8] c"io.c\00", align 1
@__func__._alloc_io_buf = private unnamed_addr constant [14 x i8] c"_alloc_io_buf\00", align 1

; Function Attrs: nounwind uwtable
define internal ptr @_alloc_io_buf() #0 {
  %1 = alloca ptr, align 8
  call void @llvm.lifetime.start.p0(i64 8, ptr %1) #10
  %2 = call ptr @slurm_xcalloc(i64 noundef 1, i64 noundef 16, i1 noundef zeroext true, i1 noundef zeroext false, ptr noundef @.str.12, i32 noundef 1948, ptr noundef @__func__._alloc_io_buf)
  store ptr %2, ptr %1, align 8
  %3 = load ptr, ptr %1, align 8
  %4 = getelementptr inbounds nuw %struct.io_buf, ptr %3, i32 0, i32 0
  store i32 0, ptr %4, align 8
  %5 = load ptr, ptr %1, align 8
  %6 = getelementptr inbounds nuw %struct.io_buf, ptr %5, i32 0, i32 1
  store i32 0, ptr %6, align 4
  %7 = call ptr @slurm_xcalloc(i64 noundef 1, i64 noundef 1035, i1 noundef zeroext true, i1 noundef zeroext false, ptr noundef @.str.12, i32 noundef 1954, ptr noundef @__func__._alloc_io_buf)
  %8 = load ptr, ptr %1, align 8
  %9 = getelementptr inbounds nuw %struct.io_buf, ptr %8, i32 0, i32 2
  store ptr %7, ptr %9, align 8
  %10 = load ptr, ptr %1, align 8
  call void @llvm.lifetime.end.p0(i64 8, ptr %1) #10
  ret ptr %10
}

; Function Attrs: nounwind uwtable
define internal zeroext i1 @_outgoing_buf_free(ptr noundef %0) #0 {
  %2 = alloca i1, align 1
  %3 = alloca ptr, align 8
  %4 = alloca ptr, align 8
  %5 = alloca i32, align 4
  store ptr %0, ptr %3, align 8
  call void @llvm.lifetime.start.p0(i64 8, ptr %4) #10
  %6 = load ptr, ptr %3, align 8
  %7 = getelementptr inbounds nuw %struct.stepd_step_rec_t, ptr %6, i32 0, i32 69
  %8 = load ptr, ptr %7, align 8
  %9 = call i32 @list_count(ptr noundef %8)
  %10 = icmp sgt i32 %9, 0
  br i1 %10, label %11, label %12

11:                                               ; preds = %1
  store i1 true, ptr %2, align 1
  store i32 1, ptr %5, align 4
  br label %29

12:                                               ; preds = %1
  %13 = load ptr, ptr %3, align 8
  %14 = getelementptr inbounds nuw %struct.stepd_step_rec_t, ptr %13, i32 0, i32 71
  %15 = load i32, ptr %14, align 4
  %16 = icmp slt i32 %15, 1024
  br i1 %16, label %17, label %27

17:                                               ; preds = %12
  %18 = call ptr @_alloc_io_buf()
  store ptr %18, ptr %4, align 8
  %19 = load ptr, ptr %3, align 8
  %20 = getelementptr inbounds nuw %struct.stepd_step_rec_t, ptr %19, i32 0, i32 69
  %21 = load ptr, ptr %20, align 8
  %22 = load ptr, ptr %4, align 8
  call void @list_enqueue(ptr noundef %21, ptr noundef %22)
  %23 = load ptr, ptr %3, align 8
  %24 = getelementptr inbounds nuw %struct.stepd_step_rec_t, ptr %23, i32 0, i32 71
  %25 = load i32, ptr %24, align 4
  %26 = add nsw i32 %25, 1
  store i32 %26, ptr %24, align 4
  store i1 true, ptr %2, align 1
  store i32 1, ptr %5, align 4
  br label %29

27:                                               ; preds = %12
  br label %28

28:                                               ; preds = %27
  store i1 false, ptr %2, align 1
  store i32 1, ptr %5, align 4
  br label %29

29:                                               ; preds = %28, %17, %11
  call void @llvm.lifetime.end.p0(i64 8, ptr %4) #10
  %30 = load i1, ptr %2, align 1
  ret i1 %30
}

; Function Attrs: nounwind uwtable
define internal void @_free_outgoing_msg(ptr noundef %0, ptr noundef %1) #0 {
  %3 = alloca ptr, align 8
  %4 = alloca ptr, align 8
  %5 = alloca i32, align 4
  %6 = alloca i32, align 4
  store ptr %0, ptr %3, align 8
  store ptr %1, ptr %4, align 8
  call void @llvm.lifetime.start.p0(i64 4, ptr %5) #10
  %7 = load ptr, ptr %3, align 8
  %8 = getelementptr inbounds nuw %struct.io_buf, ptr %7, i32 0, i32 0
  %9 = load i32, ptr %8, align 8
  %10 = add nsw i32 %9, -1
  store i32 %10, ptr %8, align 8
  %11 = load ptr, ptr %3, align 8
  %12 = getelementptr inbounds nuw %struct.io_buf, ptr %11, i32 0, i32 0
  %13 = load i32, ptr %12, align 8
  %14 = icmp eq i32 %13, 0
  br i1 %14, label %15, label %91

15:                                               ; preds = %2
  %16 = load ptr, ptr %4, align 8
  %17 = getelementptr inbounds nuw %struct.stepd_step_rec_t, ptr %16, i32 0, i32 69
  %18 = load ptr, ptr %17, align 8
  %19 = load ptr, ptr %3, align 8
  call void @list_enqueue(ptr noundef %18, ptr noundef %19)
  %20 = load ptr, ptr %4, align 8
  %21 = getelementptr inbounds nuw %struct.stepd_step_rec_t, ptr %20, i32 0, i32 62
  %22 = load ptr, ptr %21, align 8
  %23 = icmp eq ptr %22, null
  br i1 %23, label %24, label %25

24:                                               ; preds = %15
  store i32 1, ptr %6, align 4
  br label %92

25:                                               ; preds = %15
  store i32 0, ptr %5, align 4
  br label %26

26:                                               ; preds = %83, %25
  %27 = load i32, ptr %5, align 4
  %28 = load ptr, ptr %4, align 8
  %29 = getelementptr inbounds nuw %struct.stepd_step_rec_t, ptr %28, i32 0, i32 11
  %30 = load i32, ptr %29, align 4
  %31 = icmp ult i32 %27, %30
  br i1 %31, label %32, label %86

32:                                               ; preds = %26
  %33 = load ptr, ptr %4, align 8
  %34 = getelementptr inbounds nuw %struct.stepd_step_rec_t, ptr %33, i32 0, i32 62
  %35 = load ptr, ptr %34, align 8
  %36 = load i32, ptr %5, align 4
  %37 = sext i32 %36 to i64
  %38 = getelementptr inbounds ptr, ptr %35, i64 %37
  %39 = load ptr, ptr %38, align 8
  %40 = getelementptr inbounds nuw %struct.stepd_step_task_info_t, ptr %39, i32 0, i32 17
  %41 = load ptr, ptr %40, align 8
  %42 = icmp ne ptr %41, null
  br i1 %42, label %43, label %57

43:                                               ; preds = %32
  %44 = load ptr, ptr %4, align 8
  %45 = getelementptr inbounds nuw %struct.stepd_step_rec_t, ptr %44, i32 0, i32 62
  %46 = load ptr, ptr %45, align 8
  %47 = load i32, ptr %5, align 4
  %48 = sext i32 %47 to i64
  %49 = getelementptr inbounds ptr, ptr %46, i64 %48
  %50 = load ptr, ptr %49, align 8
  %51 = getelementptr inbounds nuw %struct.stepd_step_task_info_t, ptr %50, i32 0, i32 17
  %52 = load ptr, ptr %51, align 8
  call void @_route_msg_task_to_client(ptr noundef %52)
  %53 = load ptr, ptr %4, align 8
  %54 = call zeroext i1 @_outgoing_buf_free(ptr noundef %53)
  br i1 %54, label %56, label %55

55:                                               ; preds = %43
  br label %86

56:                                               ; preds = %43
  br label %57

57:                                               ; preds = %56, %32
  %58 = load ptr, ptr %4, align 8
  %59 = getelementptr inbounds nuw %struct.stepd_step_rec_t, ptr %58, i32 0, i32 62
  %60 = load ptr, ptr %59, align 8
  %61 = load i32, ptr %5, align 4
  %62 = sext i32 %61 to i64
  %63 = getelementptr inbounds ptr, ptr %60, i64 %62
  %64 = load ptr, ptr %63, align 8
  %65 = getelementptr inbounds nuw %struct.stepd_step_task_info_t, ptr %64, i32 0, i32 16
  %66 = load ptr, ptr %65, align 8
  %67 = icmp ne ptr %66, null
  br i1 %67, label %68, label %82

68:                                               ; preds = %57
  %69 = load ptr, ptr %4, align 8
  %70 = getelementptr inbounds nuw %struct.stepd_step_rec_t, ptr %69, i32 0, i32 62
  %71 = load ptr, ptr %70, align 8
  %72 = load i32, ptr %5, align 4
  %73 = sext i32 %72 to i64
  %74 = getelementptr inbounds ptr, ptr %71, i64 %73
  %75 = load ptr, ptr %74, align 8
  %76 = getelementptr inbounds nuw %struct.stepd_step_task_info_t, ptr %75, i32 0, i32 16
  %77 = load ptr, ptr %76, align 8
  call void @_route_msg_task_to_client(ptr noundef %77)
  %78 = load ptr, ptr %4, align 8
  %79 = call zeroext i1 @_outgoing_buf_free(ptr noundef %78)
  br i1 %79, label %81, label %80

80:                                               ; preds = %68
  br label %86

81:                                               ; preds = %68
  br label %82

82:                                               ; preds = %81, %57
  br label %83

83:                                               ; preds = %82
  %84 = load i32, ptr %5, align 4
  %85 = add nsw i32 %84, 1
  store i32 %85, ptr %5, align 4
  br label %26, !llvm.loop !30

86:                                               ; preds = %80, %55, %26
  %87 = load ptr, ptr %4, align 8
  %88 = getelementptr inbounds nuw %struct.stepd_step_rec_t, ptr %87, i32 0, i32 63
  %89 = load ptr, ptr %88, align 8
  %90 = call i32 @eio_signal_wakeup(ptr noundef %89)
  br label %91

91:                                               ; preds = %86, %2
  store i32 0, ptr %6, align 4
  br label %92

92:                                               ; preds = %91, %24
  call void @llvm.lifetime.end.p0(i64 4, ptr %5) #10
  %93 = load i32, ptr %6, align 4
  switch i32 %93, label %95 [
    i32 0, label %94
    i32 1, label %94
  ]

94:                                               ; preds = %92, %92
  ret void

95:                                               ; preds = %92
  unreachable
}