; Function Attrs: nounwind uwtable
define internal fastcc void @_free_outgoing_msg(ptr noundef %0, ptr noundef captures(none) %1) unnamed_addr #0 {
  %3 = load i32, ptr %0, align 8
  %4 = add nsw i32 %3, -1
  store i32 %4, ptr %0, align 8
  %5 = icmp eq i32 %4, 0
  br i1 %5, label %6, label %61

6:                                                ; preds = %2
  %7 = getelementptr inbounds nuw i8, ptr %1, i64 536
  %8 = load ptr, ptr %7, align 8
  tail call void @list_enqueue(ptr noundef %8, ptr noundef nonnull %0) #11
  %9 = getelementptr inbounds nuw i8, ptr %1, i64 480
  %10 = load ptr, ptr %9, align 8
  %11 = icmp eq ptr %10, null
  br i1 %11, label %61, label %.preheader

.preheader:                                       ; preds = %6
  %12 = getelementptr inbounds nuw i8, ptr %1, i64 548
  %13 = getelementptr inbounds nuw i8, ptr %1, i64 156
  %14 = load i32, ptr %13, align 4
  %.not28 = icmp eq i32 %14, 0
  br i1 %.not28, label %_outgoing_buf_free.exit, label %.lr.ph

.lr.ph:                                           ; preds = %.preheader, %_outgoing_buf_free.exit22.thread
  %indvars.iv = phi i64 [ %indvars.iv.next, %_outgoing_buf_free.exit22.thread ], [ 0, %.preheader ]
  %15 = load ptr, ptr %9, align 8
  %16 = getelementptr inbounds nuw ptr, ptr %15, i64 %indvars.iv
  %17 = load ptr, ptr %16, align 8
  %18 = getelementptr inbounds nuw i8, ptr %17, i64 136
  %19 = load ptr, ptr %18, align 8
  %.not = icmp eq ptr %19, null
  br i1 %.not, label %_outgoing_buf_free.exit.thread, label %20

20:                                               ; preds = %.lr.ph
  tail call fastcc void @_route_msg_task_to_client(ptr noundef nonnull %19)
  %21 = load ptr, ptr %7, align 8
  %22 = tail call i32 @list_count(ptr noundef %21) #11
  %23 = icmp sgt i32 %22, 0
  br i1 %23, label %_outgoing_buf_free.exit.thread, label %24

24:                                               ; preds = %20
  %25 = load i32, ptr %12, align 4
  %26 = icmp slt i32 %25, 1024
  br i1 %26, label %27, label %_outgoing_buf_free.exit

27:                                               ; preds = %24
  %28 = tail call ptr @slurm_xcalloc(i64 noundef 1, i64 noundef 16, i1 noundef zeroext true, i1 noundef zeroext false, ptr noundef nonnull @.str.12, i32 noundef 1948, ptr noundef nonnull @__func__._alloc_io_buf) #11
  store i32 0, ptr %28, align 8
  %29 = getelementptr inbounds nuw i8, ptr %28, i64 4
  store i32 0, ptr %29, align 4
  %30 = tail call ptr @slurm_xcalloc(i64 noundef 1, i64 noundef 1035, i1 noundef zeroext true, i1 noundef zeroext false, ptr noundef nonnull @.str.12, i32 noundef 1954, ptr noundef nonnull @__func__._alloc_io_buf) #11
  %31 = getelementptr inbounds nuw i8, ptr %28, i64 8
  store ptr %30, ptr %31, align 8
  %32 = load ptr, ptr %7, align 8
  tail call void @list_enqueue(ptr noundef %32, ptr noundef nonnull %28) #11
  %33 = load i32, ptr %12, align 4
  %34 = add nsw i32 %33, 1
  store i32 %34, ptr %12, align 4
  br label %_outgoing_buf_free.exit.thread

_outgoing_buf_free.exit.thread:                   ; preds = %20, %27, %.lr.ph
  %35 = load ptr, ptr %9, align 8
  %36 = getelementptr inbounds nuw ptr, ptr %35, i64 %indvars.iv
  %37 = load ptr, ptr %36, align 8
  %38 = getelementptr inbounds nuw i8, ptr %37, i64 128
  %39 = load ptr, ptr %38, align 8
  %.not20 = icmp eq ptr %39, null
  br i1 %.not20, label %_outgoing_buf_free.exit22.thread, label %40

40:                                               ; preds = %_outgoing_buf_free.exit.thread
  tail call fastcc void @_route_msg_task_to_client(ptr noundef nonnull %39)
  %41 = load ptr, ptr %7, align 8
  %42 = tail call i32 @list_count(ptr noundef %41) #11
  %43 = icmp sgt i32 %42, 0
  br i1 %43, label %_outgoing_buf_free.exit22.thread, label %44

44:                                               ; preds = %40
  %45 = load i32, ptr %12, align 4
  %46 = icmp slt i32 %45, 1024
  br i1 %46, label %47, label %_outgoing_buf_free.exit

47:                                               ; preds = %44
  %48 = tail call ptr @slurm_xcalloc(i64 noundef 1, i64 noundef 16, i1 noundef zeroext true, i1 noundef zeroext false, ptr noundef nonnull @.str.12, i32 noundef 1948, ptr noundef nonnull @__func__._alloc_io_buf) #11
  store i32 0, ptr %48, align 8
  %49 = getelementptr inbounds nuw i8, ptr %48, i64 4
  store i32 0, ptr %49, align 4
  %50 = tail call ptr @slurm_xcalloc(i64 noundef 1, i64 noundef 1035, i1 noundef zeroext true, i1 noundef zeroext false, ptr noundef nonnull @.str.12, i32 noundef 1954, ptr noundef nonnull @__func__._alloc_io_buf) #11
  %51 = getelementptr inbounds nuw i8, ptr %48, i64 8
  store ptr %50, ptr %51, align 8
  %52 = load ptr, ptr %7, align 8
  tail call void @list_enqueue(ptr noundef %52, ptr noundef nonnull %48) #11
  %53 = load i32, ptr %12, align 4
  %54 = add nsw i32 %53, 1
  store i32 %54, ptr %12, align 4
  br label %_outgoing_buf_free.exit22.thread

_outgoing_buf_free.exit22.thread:                 ; preds = %40, %47, %_outgoing_buf_free.exit.thread
  %indvars.iv.next = add nuw nsw i64 %indvars.iv, 1
  %55 = load i32, ptr %13, align 4
  %56 = zext i32 %55 to i64
  %57 = icmp samesign ult i64 %indvars.iv.next, %56
  br i1 %57, label %.lr.ph, label %_outgoing_buf_free.exit, !llvm.loop !31

_outgoing_buf_free.exit:                          ; preds = %_outgoing_buf_free.exit22.thread, %24, %44, %.preheader
  %58 = getelementptr inbounds nuw i8, ptr %1, i64 488
  %59 = load ptr, ptr %58, align 8
  %60 = tail call i32 @eio_signal_wakeup(ptr noundef %59) #11
  br label %61

61:                                               ; preds = %2, %_outgoing_buf_free.exit, %6
  ret void
}